; Function Attrs: nounwind uwtable
define void @validateMultiQubitMatrix(ptr noundef readonly byval(%struct.Qureg) align 8 captures(none) %0, ptr noundef readonly byval(%struct.ComplexMatrixN) align 8 captures(none) %1, i32 noundef %2, ptr noundef %3) local_unnamed_addr #3 {
  %.sroa.3.0..sroa_idx = getelementptr inbounds nuw i8, ptr %1, i64 8
  %.sroa.3.0.copyload = load ptr, ptr %.sroa.3.0..sroa_idx, align 8
  %.sroa.4.0..sroa_idx = getelementptr inbounds nuw i8, ptr %1, i64 16
  %.sroa.4.0.copyload = load ptr, ptr %.sroa.4.0..sroa_idx, align 8
  %5 = icmp eq ptr %.sroa.3.0.copyload, null
  %6 = icmp eq ptr %.sroa.4.0.copyload, null
  %.not2.i = select i1 %5, i1 true, i1 %6
  br i1 %.not2.i, label %7, label %validateMatrixInit.exit

7:                                                ; preds = %4
  tail call void @invalidQuESTInputError(ptr noundef nonnull @.str.50, ptr noundef %3)
  br label %validateMatrixInit.exit

validateMatrixInit.exit:                          ; preds = %4, %7
  %.sroa.36.0..sroa_idx = getelementptr inbounds nuw i8, ptr %0, i64 16
  %.sroa.36.0.copyload = load i64, ptr %.sroa.36.0..sroa_idx, align 8
  %8 = zext nneg i32 %2 to i64
  %9 = shl nuw i64 1, %8
  %.not.i = icmp slt i64 %.sroa.36.0.copyload, %9
  br i1 %.not.i, label %10, label %validateMultiQubitMatrixFitsInNode.exit

10:                                               ; preds = %validateMatrixInit.exit
  tail call void @invalidQuESTInputError(ptr noundef nonnull @.str.48, ptr noundef %3)
  br label %validateMultiQubitMatrixFitsInNode.exit

validateMultiQubitMatrixFitsInNode.exit:          ; preds = %validateMatrixInit.exit, %10
  %11 = load i32, ptr %1, align 8, !tbaa !11
  %.not = icmp eq i32 %2, %11
  br i1 %.not, label %QuESTAssert.exit, label %12

12:                                               ; preds = %validateMultiQubitMatrixFitsInNode.exit
  tail call void @invalidQuESTInputError(ptr noundef nonnull @.str.49, ptr noundef %3)
  br label %QuESTAssert.exit

QuESTAssert.exit:                                 ; preds = %validateMultiQubitMatrixFitsInNode.exit, %12
  ret void
}